target datalayout = "e-m:e-p270:32:32-p271:32:32-p272:64:64-i64:64-i128:128-f80:128-n8:16:32:64-S128"
target triple = "x86_64-pc-linux-gnu"

; Function Attrs: nounwind sspstrong uwtable
define internal i32 @euctw_mbc_enc_len(ptr noundef %0, ptr noundef %1, ptr noundef %2) #0 {
  %4 = alloca i32, align 4
  %5 = alloca ptr, align 8
  %6 = alloca ptr, align 8
  %7 = alloca ptr, align 8
  %8 = alloca i32, align 4
  %9 = alloca i32, align 4
  %10 = alloca i32, align 4
  store ptr %0, ptr %5, align 8, !tbaa !13
  store ptr %1, ptr %6, align 8, !tbaa !13
  store ptr %2, ptr %7, align 8, !tbaa !14
  call void @llvm.lifetime.start.p0(i64 4, ptr %8) #3
  %11 = load ptr, ptr %5, align 8, !tbaa !13
  %12 = getelementptr inbounds nuw i8, ptr %11, i32 1
  store ptr %12, ptr %5, align 8, !tbaa !13
  %13 = load i8, ptr %11, align 1, !tbaa !16
  %14 = zext i8 %13 to i32
  store i32 %14, ptr %8, align 4, !tbaa !17
  call void @llvm.lifetime.start.p0(i64 4, ptr %9) #3
  %15 = load i32, ptr %8, align 4, !tbaa !17
  %16 = sext i32 %15 to i64
  %17 = getelementptr inbounds [256 x i8], ptr @trans, i64 0, i64 %16
  %18 = load i8, ptr %17, align 1, !tbaa !16
  %19 = sext i8 %18 to i32
  store i32 %19, ptr %9, align 4, !tbaa !17
  %20 = load i32, ptr %9, align 4, !tbaa !17
  %21 = icmp slt i32 %20, 0
  br i1 %21, label %22, label %26

22:                                               ; preds = %3
  %23 = load i32, ptr %9, align 4, !tbaa !17
  %24 = icmp eq i32 %23, -1
  %25 = select i1 %24, i32 1, i32 -1
  store i32 %25, ptr %4, align 4
  store i32 1, ptr %10, align 4
  br label %95

26:                                               ; preds = %3
  %27 = load ptr, ptr %5, align 8, !tbaa !13
  %28 = load ptr, ptr %6, align 8, !tbaa !13
  %29 = icmp eq ptr %27, %28
  br i1 %29, label %30, label %37

30:                                               ; preds = %26
  %31 = load i32, ptr %8, align 4, !tbaa !17
  %32 = sext i32 %31 to i64
  %33 = getelementptr inbounds [256 x i32], ptr @EncLen_EUCTW, i64 0, i64 %32
  %34 = load i32, ptr %33, align 4, !tbaa !17
  %35 = sub nsw i32 %34, 1
  %36 = sub nsw i32 -1, %35
  store i32 %36, ptr %4, align 4
  store i32 1, ptr %10, align 4
  br label %95

37:                                               ; preds = %26
  %38 = load i32, ptr %9, align 4, !tbaa !17
  %39 = sext i32 %38 to i64
  %40 = getelementptr inbounds [4 x [256 x i8]], ptr @trans, i64 0, i64 %39
  %41 = load ptr, ptr %5, align 8, !tbaa !13
  %42 = getelementptr inbounds nuw i8, ptr %41, i32 1
  store ptr %42, ptr %5, align 8, !tbaa !13
  %43 = load i8, ptr %41, align 1, !tbaa !16
  %44 = zext i8 %43 to i64
  %45 = getelementptr inbounds nuw [256 x i8], ptr %40, i64 0, i64 %44
  %46 = load i8, ptr %45, align 1, !tbaa !16
  %47 = sext i8 %46 to i32
  store i32 %47, ptr %9, align 4, !tbaa !17
  %48 = load i32, ptr %9, align 4, !tbaa !17
  %49 = icmp slt i32 %48, 0
  br i1 %49, label %50, label %54

50:                                               ; preds = %37
  %51 = load i32, ptr %9, align 4, !tbaa !17
  %52 = icmp eq i32 %51, -1
  %53 = select i1 %52, i32 2, i32 -1
  store i32 %53, ptr %4, align 4
  store i32 1, ptr %10, align 4
  br label %95

54:                                               ; preds = %37
  %55 = load ptr, ptr %5, align 8, !tbaa !13
  %56 = load ptr, ptr %6, align 8, !tbaa !13
  %57 = icmp eq ptr %55, %56
  br i1 %57, label %58, label %59

58:                                               ; preds = %54
  store i32 -3, ptr %4, align 4
  store i32 1, ptr %10, align 4
  br label %95

59:                                               ; preds = %54
  %60 = load i32, ptr %9, align 4, !tbaa !17
  %61 = sext i32 %60 to i64
  %62 = getelementptr inbounds [4 x [256 x i8]], ptr @trans, i64 0, i64 %61
  %63 = load ptr, ptr %5, align 8, !tbaa !13
  %64 = getelementptr inbounds nuw i8, ptr %63, i32 1
  store ptr %64, ptr %5, align 8, !tbaa !13
  %65 = load i8, ptr %63, align 1, !tbaa !16
  %66 = zext i8 %65 to i64
  %67 = getelementptr inbounds nuw [256 x i8], ptr %62, i64 0, i64 %66
  %68 = load i8, ptr %67, align 1, !tbaa !16
  %69 = sext i8 %68 to i32
  store i32 %69, ptr %9, align 4, !tbaa !17
  %70 = load i32, ptr %9, align 4, !tbaa !17
  %71 = icmp slt i32 %70, 0
  br i1 %71, label %72, label %76

72:                                               ; preds = %59
  %73 = load i32, ptr %9, align 4, !tbaa !17
  %74 = icmp eq i32 %73, -1
  %75 = select i1 %74, i32 3, i32 -1
  store i32 %75, ptr %4, align 4
  store i32 1, ptr %10, align 4
  br label %95

76:                                               ; preds = %59
  %77 = load ptr, ptr %5, align 8, !tbaa !13
  %78 = load ptr, ptr %6, align 8, !tbaa !13
  %79 = icmp eq ptr %77, %78
  br i1 %79, label %80, label %81

80:                                               ; preds = %76
  store i32 -2, ptr %4, align 4
  store i32 1, ptr %10, align 4
  br label %95

81:                                               ; preds = %76
  %82 = load i32, ptr %9, align 4, !tbaa !17
  %83 = sext i32 %82 to i64
  %84 = getelementptr inbounds [4 x [256 x i8]], ptr @trans, i64 0, i64 %83
  %85 = load ptr, ptr %5, align 8, !tbaa !13
  %86 = getelementptr inbounds nuw i8, ptr %85, i32 1
  store ptr %86, ptr %5, align 8, !tbaa !13
  %87 = load i8, ptr %85, align 1, !tbaa !16
  %88 = zext i8 %87 to i64
  %89 = getelementptr inbounds nuw [256 x i8], ptr %84, i64 0, i64 %88
  %90 = load i8, ptr %89, align 1, !tbaa !16
  %91 = sext i8 %90 to i32
  store i32 %91, ptr %9, align 4, !tbaa !17
  %92 = load i32, ptr %9, align 4, !tbaa !17
  %93 = icmp eq i32 %92, -1
  %94 = select i1 %93, i32 4, i32 -1
  store i32 %94, ptr %4, align 4
  store i32 1, ptr %10, align 4
  br label %95

95:                                               ; preds = %81, %80, %72, %58, %50, %30, %22
  call void @llvm.lifetime.end.p0(i64 4, ptr %9) #3
  call void @llvm.lifetime.end.p0(i64 4, ptr %8) #3
  %96 = load i32, ptr %4, align 4
  ret i32 %96
}