; Function Attrs: mustprogress nofree norecurse nosync nounwind sspstrong willreturn memory(argmem: read) uwtable
define internal range(i32 -2147483647, -2147483648) i32 @euctw_mbc_enc_len(ptr noundef readonly captures(address) %0, ptr noundef readnone captures(address) %1, ptr readnone captures(none) %2) #2 {
  %4 = getelementptr inbounds nuw i8, ptr %0, i64 1
  %5 = load i8, ptr %0, align 1, !tbaa !6
  %6 = zext i8 %5 to i64
  %7 = getelementptr inbounds nuw [256 x i8], ptr @trans, i64 0, i64 %6
  %8 = load i8, ptr %7, align 1, !tbaa !6
  %9 = sext i8 %8 to i64
  %10 = icmp slt i8 %8, 0
  br i1 %10, label %11, label %14

11:                                               ; preds = %3
  %12 = icmp eq i8 %8, -1
  %13 = select i1 %12, i32 1, i32 -1
  br label %53

14:                                               ; preds = %3
  %15 = icmp eq ptr %4, %1
  br i1 %15, label %16, label %20

16:                                               ; preds = %14
  %17 = getelementptr inbounds nuw [256 x i32], ptr @EncLen_EUCTW, i64 0, i64 %6
  %18 = load i32, ptr %17, align 4, !tbaa !9
  %19 = sub nsw i32 0, %18
  br label %53

20:                                               ; preds = %14
  %21 = getelementptr inbounds nuw i8, ptr %0, i64 2
  %22 = load i8, ptr %4, align 1, !tbaa !6
  %23 = zext i8 %22 to i64
  %24 = getelementptr inbounds nuw [4 x [256 x i8]], ptr @trans, i64 0, i64 %9, i64 %23
  %25 = load i8, ptr %24, align 1, !tbaa !6
  %26 = sext i8 %25 to i64
  %27 = icmp slt i8 %25, 0
  br i1 %27, label %28, label %31

28:                                               ; preds = %20
  %29 = icmp eq i8 %25, -1
  %30 = select i1 %29, i32 2, i32 -1
  br label %53

31:                                               ; preds = %20
  %32 = icmp eq ptr %21, %1
  br i1 %32, label %53, label %33

33:                                               ; preds = %31
  %34 = getelementptr inbounds nuw i8, ptr %0, i64 3
  %35 = load i8, ptr %21, align 1, !tbaa !6
  %36 = zext i8 %35 to i64
  %37 = getelementptr inbounds nuw [4 x [256 x i8]], ptr @trans, i64 0, i64 %26, i64 %36
  %38 = load i8, ptr %37, align 1, !tbaa !6
  %39 = sext i8 %38 to i64
  %40 = icmp slt i8 %38, 0
  br i1 %40, label %41, label %44

41:                                               ; preds = %33
  %42 = icmp eq i8 %38, -1
  %43 = select i1 %42, i32 3, i32 -1
  br label %53

44:                                               ; preds = %33
  %45 = icmp eq ptr %34, %1
  br i1 %45, label %53, label %46

46:                                               ; preds = %44
  %47 = load i8, ptr %34, align 1, !tbaa !6
  %48 = zext i8 %47 to i64
  %49 = getelementptr inbounds nuw [4 x [256 x i8]], ptr @trans, i64 0, i64 %39, i64 %48
  %50 = load i8, ptr %49, align 1, !tbaa !6
  %51 = icmp eq i8 %50, -1
  %52 = select i1 %51, i32 4, i32 -1
  br label %53

53:                                               ; preds = %44, %31, %46, %41, %28, %16, %11
  %.0 = phi i32 [ %13, %11 ], [ %19, %16 ], [ %30, %28 ], [ %43, %41 ], [ %52, %46 ], [ -3, %31 ], [ -2, %44 ]
  ret i32 %.0
}